; Function Attrs: mustprogress uwtable
define noundef i64 @_ZN7Archive10ReadHeaderEv(ptr noundef nonnull align 8 dereferenceable(57108) %0) local_unnamed_addr #0 align 2 {
  %2 = alloca %class.uiMsgStore, align 8
  %3 = getelementptr inbounds i8, ptr %0, i64 48865
  %4 = load i8, ptr %3, align 1
  %5 = trunc i8 %4 to i1
  br i1 %5, label %34, label %6

6:                                                ; preds = %1
  %7 = load ptr, ptr %0, align 8
  %8 = getelementptr inbounds i8, ptr %7, i64 48
  %9 = load ptr, ptr %8, align 8
  %10 = tail call noundef i64 %9(ptr noundef nonnull align 8 dereferenceable(57108) %0)
  %11 = getelementptr inbounds i8, ptr %0, i64 48824
  store i64 %10, ptr %11, align 8
  %12 = getelementptr inbounds i8, ptr %0, i64 48840
  %13 = load i32, ptr %12, align 8
  switch i32 %13, label %.thread [
    i32 1, label %14
    i32 2, label %16
    i32 3, label %18
  ]

14:                                               ; preds = %6
  %15 = tail call noundef i64 @_ZN7Archive12ReadHeader14Ev(ptr noundef nonnull align 8 dereferenceable(57108) %0)
  br label %20

16:                                               ; preds = %6
  %17 = tail call noundef i64 @_ZN7Archive12ReadHeader15Ev(ptr noundef nonnull align 8 dereferenceable(57108) %0)
  br label %20

18:                                               ; preds = %6
  %19 = tail call noundef i64 @_ZN7Archive12ReadHeader50Ev(ptr noundef nonnull align 8 dereferenceable(57108) %0)
  br label %20

20:                                               ; preds = %18, %16, %14
  %.0 = phi i64 [ %19, %18 ], [ %17, %16 ], [ %15, %14 ]
  %.not = icmp eq i64 %.0, 0
  br i1 %.not, label %.thread, label %21

21:                                               ; preds = %20
  %22 = getelementptr inbounds i8, ptr %0, i64 48832
  %23 = load i64, ptr %22, align 8
  %24 = load i64, ptr %11, align 8
  %.not5 = icmp sgt i64 %23, %24
  br i1 %.not5, label %34, label %25

25:                                               ; preds = %21
  call void @llvm.lifetime.start.p0(i64 112, ptr nonnull %2)
  br label %26

26:                                               ; preds = %26, %25
  %indvars.iv.i.i.i = phi i64 [ 0, %25 ], [ %indvars.iv.next.i.i.i, %26 ]
  %27 = getelementptr inbounds [8 x ptr], ptr %2, i64 0, i64 %indvars.iv.i.i.i
  store ptr @.str.8, ptr %27, align 8
  %indvars.iv.next.i.i.i = add nuw nsw i64 %indvars.iv.i.i.i, 1
  %exitcond.not.i.i.i = icmp eq i64 %indvars.iv.next.i.i.i, 8
  br i1 %exitcond.not.i.i.i, label %_ZN7Archive15BrokenHeaderMsgEv.exit, label %26, !llvm.loop !4

_ZN7Archive15BrokenHeaderMsgEv.exit:              ; preds = %26
  %28 = getelementptr inbounds i8, ptr %0, i64 52
  %29 = getelementptr inbounds i8, ptr %2, i64 64
  %30 = getelementptr inbounds i8, ptr %2, i64 104
  call void @llvm.memset.p0.i64(ptr noundef nonnull align 8 dereferenceable(40) %29, i8 0, i64 40, i1 false)
  store i32 26, ptr %30, align 8
  %31 = getelementptr inbounds i8, ptr %2, i64 96
  store i32 1, ptr %31, align 8
  store ptr %28, ptr %2, align 8
  call void @_ZN10uiMsgStore3MsgEv(ptr noundef nonnull align 8 dereferenceable(108) %2)
  call void @llvm.lifetime.end.p0(i64 112, ptr nonnull %2)
  %32 = getelementptr inbounds i8, ptr %0, i64 48864
  store i8 1, ptr %32, align 8
  call void @_ZN12ErrorHandler12SetErrorCodeE8RAR_EXIT(ptr noundef nonnull align 4 dereferenceable(14) @ErrHandler, i32 noundef 3)
  br label %.thread

.thread:                                          ; preds = %6, %_ZN7Archive15BrokenHeaderMsgEv.exit, %20
  %33 = getelementptr inbounds i8, ptr %0, i64 11076
  store i32 255, ptr %33, align 4
  br label %34

34:                                               ; preds = %21, %.thread, %1
  %.04 = phi i64 [ 0, %1 ], [ 0, %.thread ], [ %.0, %21 ]
  ret i64 %.04
}